target datalayout = "e-m:e-p270:32:32-p271:32:32-p272:64:64-i64:64-i128:128-f80:128-n8:16:32:64-S128"
target triple = "x86_64-pc-linux-gnu"

%struct.SN_env = type { ptr, i32, i32, i32, i32, i32, ptr, ptr }

@s_59 = internal constant [2 x i8] c"\D8\A8", align 1
@s_60 = internal constant [2 x i8] c"\D9\83", align 1

; Function Attrs: nounwind uwtable
define internal i32 @r_Prefix_Step3b_Noun(ptr noundef %0) #0 {
  %2 = alloca i32, align 4
  %3 = alloca ptr, align 8
  %4 = alloca i32, align 4
  %5 = alloca i32, align 4
  %6 = alloca i32, align 4
  %7 = alloca i32, align 4
  %8 = alloca i32, align 4
  store ptr %0, ptr %3, align 8
  call void @llvm.lifetime.start.p0(i64 4, ptr %4) #3
  %9 = load ptr, ptr %3, align 8
  %10 = getelementptr inbounds nuw %struct.SN_env, ptr %9, i32 0, i32 1
  %11 = load i32, ptr %10, align 8
  %12 = load ptr, ptr %3, align 8
  %13 = getelementptr inbounds nuw %struct.SN_env, ptr %12, i32 0, i32 4
  store i32 %11, ptr %13, align 4
  %14 = load ptr, ptr %3, align 8
  %15 = getelementptr inbounds nuw %struct.SN_env, ptr %14, i32 0, i32 1
  %16 = load i32, ptr %15, align 8
  %17 = add i32 %16, 1
  %18 = load ptr, ptr %3, align 8
  %19 = getelementptr inbounds nuw %struct.SN_env, ptr %18, i32 0, i32 2
  %20 = load i32, ptr %19, align 4
  %21 = icmp sge i32 %17, %20
  br i1 %21, label %48, label %22

22:                                               ; preds = %1
  %23 = load ptr, ptr %3, align 8
  %24 = getelementptr inbounds nuw %struct.SN_env, ptr %23, i32 0, i32 0
  %25 = load ptr, ptr %24, align 8
  %26 = load ptr, ptr %3, align 8
  %27 = getelementptr inbounds nuw %struct.SN_env, ptr %26, i32 0, i32 1
  %28 = load i32, ptr %27, align 8
  %29 = add i32 %28, 1
  %30 = sext i32 %29 to i64
  %31 = getelementptr inbounds i8, ptr %25, i64 %30
  %32 = load i8, ptr %31, align 1
  %33 = zext i8 %32 to i32
  %34 = icmp ne i32 %33, 168
  br i1 %34, label %35, label %49

35:                                               ; preds = %22
  %36 = load ptr, ptr %3, align 8
  %37 = getelementptr inbounds nuw %struct.SN_env, ptr %36, i32 0, i32 0
  %38 = load ptr, ptr %37, align 8
  %39 = load ptr, ptr %3, align 8
  %40 = getelementptr inbounds nuw %struct.SN_env, ptr %39, i32 0, i32 1
  %41 = load i32, ptr %40, align 8
  %42 = add i32 %41, 1
  %43 = sext i32 %42 to i64
  %44 = getelementptr inbounds i8, ptr %38, i64 %43
  %45 = load i8, ptr %44, align 1
  %46 = zext i8 %45 to i32
  %47 = icmp ne i32 %46, 131
  br i1 %47, label %48, label %49

48:                                               ; preds = %35, %1
  store i32 0, ptr %2, align 4
  store i32 1, ptr %5, align 4
  br label %117

49:                                               ; preds = %35, %22
  %50 = load ptr, ptr %3, align 8
  %51 = call i32 @find_among(ptr noundef %50, ptr noundef @a_7, i32 noundef 4)
  store i32 %51, ptr %4, align 4
  %52 = load i32, ptr %4, align 4
  %53 = icmp ne i32 %52, 0
  br i1 %53, label %55, label %54

54:                                               ; preds = %49
  store i32 0, ptr %2, align 4
  store i32 1, ptr %5, align 4
  br label %117

55:                                               ; preds = %49
  %56 = load ptr, ptr %3, align 8
  %57 = getelementptr inbounds nuw %struct.SN_env, ptr %56, i32 0, i32 1
  %58 = load i32, ptr %57, align 8
  %59 = load ptr, ptr %3, align 8
  %60 = getelementptr inbounds nuw %struct.SN_env, ptr %59, i32 0, i32 5
  store i32 %58, ptr %60, align 8
  %61 = load i32, ptr %4, align 4
  switch i32 %61, label %116 [
    i32 1, label %62
    i32 2, label %80
    i32 3, label %98
  ]

62:                                               ; preds = %55
  %63 = load ptr, ptr %3, align 8
  %64 = getelementptr inbounds nuw %struct.SN_env, ptr %63, i32 0, i32 0
  %65 = load ptr, ptr %64, align 8
  %66 = call i32 @len_utf8(ptr noundef %65)
  %67 = icmp sgt i32 %66, 3
  br i1 %67, label %69, label %68

68:                                               ; preds = %62
  store i32 0, ptr %2, align 4
  store i32 1, ptr %5, align 4
  br label %117

69:                                               ; preds = %62
  call void @llvm.lifetime.start.p0(i64 4, ptr %6) #3
  %70 = load ptr, ptr %3, align 8
  %71 = call i32 @slice_del(ptr noundef %70)
  store i32 %71, ptr %6, align 4
  %72 = load i32, ptr %6, align 4
  %73 = icmp slt i32 %72, 0
  br i1 %73, label %74, label %76

74:                                               ; preds = %69
  %75 = load i32, ptr %6, align 4
  store i32 %75, ptr %2, align 4
  store i32 1, ptr %5, align 4
  br label %77

76:                                               ; preds = %69
  store i32 0, ptr %5, align 4
  br label %77

77:                                               ; preds = %76, %74
  call void @llvm.lifetime.end.p0(i64 4, ptr %6) #3
  %78 = load i32, ptr %5, align 4
  switch i32 %78, label %117 [
    i32 0, label %79
  ]

79:                                               ; preds = %77
  br label %116

80:                                               ; preds = %55
  %81 = load ptr, ptr %3, align 8
  %82 = getelementptr inbounds nuw %struct.SN_env, ptr %81, i32 0, i32 0
  %83 = load ptr, ptr %82, align 8
  %84 = call i32 @len_utf8(ptr noundef %83)
  %85 = icmp sgt i32 %84, 3
  br i1 %85, label %87, label %86

86:                                               ; preds = %80
  store i32 0, ptr %2, align 4
  store i32 1, ptr %5, align 4
  br label %117

87:                                               ; preds = %80
  call void @llvm.lifetime.start.p0(i64 4, ptr %7) #3
  %88 = load ptr, ptr %3, align 8
  %89 = call i32 @slice_from_s(ptr noundef %88, i32 noundef 2, ptr noundef @s_59)
  store i32 %89, ptr %7, align 4
  %90 = load i32, ptr %7, align 4
  %91 = icmp slt i32 %90, 0
  br i1 %91, label %92, label %94

92:                                               ; preds = %87
  %93 = load i32, ptr %7, align 4
  store i32 %93, ptr %2, align 4
  store i32 1, ptr %5, align 4
  br label %95

94:                                               ; preds = %87
  store i32 0, ptr %5, align 4
  br label %95

95:                                               ; preds = %94, %92
  call void @llvm.lifetime.end.p0(i64 4, ptr %7) #3
  %96 = load i32, ptr %5, align 4
  switch i32 %96, label %117 [
    i32 0, label %97
  ]

97:                                               ; preds = %95
  br label %116

98:                                               ; preds = %55
  %99 = load ptr, ptr %3, align 8
  %100 = getelementptr inbounds nuw %struct.SN_env, ptr %99, i32 0, i32 0
  %101 = load ptr, ptr %100, align 8
  %102 = call i32 @len_utf8(ptr noundef %101)
  %103 = icmp sgt i32 %102, 3
  br i1 %103, label %105, label %104

104:                                              ; preds = %98
  store i32 0, ptr %2, align 4
  store i32 1, ptr %5, align 4
  br label %117

105:                                              ; preds = %98
  call void @llvm.lifetime.start.p0(i64 4, ptr %8) #3
  %106 = load ptr, ptr %3, align 8
  %107 = call i32 @slice_from_s(ptr noundef %106, i32 noundef 2, ptr noundef @s_60)
  store i32 %107, ptr %8, align 4
  %108 = load i32, ptr %8, align 4
  %109 = icmp slt i32 %108, 0
  br i1 %109, label %110, label %112

110:                                              ; preds = %105
  %111 = load i32, ptr %8, align 4
  store i32 %111, ptr %2, align 4
  store i32 1, ptr %5, align 4
  br label %113

112:                                              ; preds = %105
  store i32 0, ptr %5, align 4
  br label %113

113:                                              ; preds = %112, %110
  call void @llvm.lifetime.end.p0(i64 4, ptr %8) #3
  %114 = load i32, ptr %5, align 4
  switch i32 %114, label %117 [
    i32 0, label %115
  ]

115:                                              ; preds = %113
  br label %116

116:                                              ; preds = %55, %115, %97, %79
  store i32 1, ptr %2, align 4
  store i32 1, ptr %5, align 4
  br label %117

117:                                              ; preds = %116, %113, %104, %95, %86, %77, %68, %54, %48
  call void @llvm.lifetime.end.p0(i64 4, ptr %4) #3
  %118 = load i32, ptr %2, align 4
  ret i32 %118
}