; Function Attrs: nounwind uwtable
define internal fastcc range(i32 -2147483648, 2) i32 @r_Prefix_Step3b_Noun(ptr noundef initializes((20, 24)) %0) unnamed_addr #0 {
  %2 = getelementptr inbounds nuw i8, ptr %0, i64 8
  %3 = load i32, ptr %2, align 8
  %4 = getelementptr inbounds nuw i8, ptr %0, i64 20
  store i32 %3, ptr %4, align 4
  %5 = add i32 %3, 1
  %6 = getelementptr inbounds nuw i8, ptr %0, i64 12
  %7 = load i32, ptr %6, align 4
  %.not = icmp slt i32 %5, %7
  br i1 %.not, label %8, label %40

8:                                                ; preds = %1
  %9 = load ptr, ptr %0, align 8
  %10 = sext i32 %5 to i64
  %11 = getelementptr inbounds i8, ptr %9, i64 %10
  %12 = load i8, ptr %11, align 1
  switch i8 %12, label %40 [
    i8 -88, label %13
    i8 -125, label %13
  ]

13:                                               ; preds = %8, %8
  %14 = tail call i32 @find_among(ptr noundef nonnull %0, ptr noundef nonnull @a_7, i32 noundef 4) #2
  %.not38 = icmp eq i32 %14, 0
  br i1 %.not38, label %40, label %15

15:                                               ; preds = %13
  %16 = load i32, ptr %2, align 8
  %17 = getelementptr inbounds nuw i8, ptr %0, i64 24
  store i32 %16, ptr %17, align 8
  switch i32 %14, label %39 [
    i32 1, label %18
    i32 2, label %25
    i32 3, label %32
  ]

18:                                               ; preds = %15
  %19 = load ptr, ptr %0, align 8
  %20 = tail call i32 @len_utf8(ptr noundef %19) #2
  %21 = icmp sgt i32 %20, 3
  br i1 %21, label %22, label %40

22:                                               ; preds = %18
  %23 = tail call i32 @slice_del(ptr noundef nonnull %0) #2
  %24 = icmp sgt i32 %23, -1
  br i1 %24, label %39, label %40

25:                                               ; preds = %15
  %26 = load ptr, ptr %0, align 8
  %27 = tail call i32 @len_utf8(ptr noundef %26) #2
  %28 = icmp sgt i32 %27, 3
  br i1 %28, label %29, label %40

29:                                               ; preds = %25
  %30 = tail call i32 @slice_from_s(ptr noundef nonnull %0, i32 noundef 2, ptr noundef nonnull @s_59) #2
  %31 = icmp sgt i32 %30, -1
  br i1 %31, label %39, label %40

32:                                               ; preds = %15
  %33 = load ptr, ptr %0, align 8
  %34 = tail call i32 @len_utf8(ptr noundef %33) #2
  %35 = icmp sgt i32 %34, 3
  br i1 %35, label %36, label %40

36:                                               ; preds = %32
  %37 = tail call i32 @slice_from_s(ptr noundef nonnull %0, i32 noundef 2, ptr noundef nonnull @s_60) #2
  %38 = icmp sgt i32 %37, -1
  br i1 %38, label %39, label %40

39:                                               ; preds = %36, %29, %22, %15
  br label %40

40:                                               ; preds = %32, %25, %18, %13, %1, %8, %22, %29, %36, %39
  %.0 = phi i32 [ 1, %39 ], [ %37, %36 ], [ %30, %29 ], [ %23, %22 ], [ 0, %8 ], [ 0, %1 ], [ 0, %13 ], [ 0, %18 ], [ 0, %25 ], [ 0, %32 ]
  ret i32 %.0
}